Certificate:
    Data:
        Version: 3 (0x2)
        Serial Number:
            87:2b:23:cf:64:79:70:ee
    Signature Algorithm: sha256WithRSAEncryption
        Issuer: C=uk, L=Oldham, O=The Harmony Trust, CN=The Harmony Trust Proxy CA/emailAddress=gateways@virtuetechnologies.co.uk
        Validity
            Not Before: Jan 11 10:42:15 2017 GMT
            Not After : Mar 26 00:00:00 2020 GMT
        Subject: C=uk, L=Oldham, O=The Harmony Trust, CN=The Harmony Trust Proxy CA/emailAddress=gateways@virtuetechnologies.co.uk
        Subject Public Key Info:
            Public Key Algorithm: rsaEncryption
                Public-Key: (2048 bit)
                Modulus:
                    00:bc:6a:e2:d9:5b:8e:d2:b6:f6:69:45:8c:2e:b3:
                    5c:81:24:c1:22:70:20:fc:da:a4:42:b3:00:41:ca:
                    f1:57:af:c1:94:d6:53:1e:d2:39:68:bf:f5:df:a4:
                    32:7c:fb:9f:63:82:50:1f:2f:54:94:05:26:65:88:
                    66:58:87:4c:c3:7d:30:a5:dd:b3:99:0a:82:56:44:
                    0a:1b:0d:f1:6e:20:e1:ca:ad:64:3c:71:76:7d:0d:
                    e4:9a:6f:27:8a:94:e9:06:11:3c:5b:ee:bc:77:b4:
                    62:bd:92:b5:f7:dc:99:52:05:b9:5c:9a:75:1a:7c:
                    67:13:29:8c:5c:bb:66:94:00:79:c2:79:2e:ee:bb:
                    f5:74:df:07:d2:bb:43:76:ce:96:1a:25:2b:32:83:
                    02:7a:eb:2b:7f:91:e6:9f:be:76:23:d6:f8:ea:1b:
                    3e:0a:d3:a6:62:a5:22:10:3c:d3:73:a3:46:06:6e:
                    ec:69:3f:bd:6a:12:bf:2a:89:66:d3:d4:da:5a:85:
                    8e:89:c3:f1:e4:d1:e7:d5:2a:68:60:2e:bc:f2:f9:
                    ee:5a:ff:23:28:c4:b6:02:0d:32:78:80:2b:74:0b:
                    f3:10:18:a0:98:27:ab:b1:97:de:ba:81:b2:79:46:
                    4b:8e:b5:0a:3c:bb:5b:f2:60:00:fd:5d:94:da:26:
                    b7:b3
                Exponent: 65537 (0x10001)
        X509v3 extensions:
            X509v3 Subject Key Identifier: 
                BC:05:26:1C:DE:77:9F:29:64:44:20:35:1D:29:AE:39:20:FB:BC:05
            X509v3 Basic Constraints: 
                CA:TRUE
            X509v3 Subject Alternative Name: 
                IP Address:127.0.0.1
    Signature Algorithm: sha256WithRSAEncryption
         2f:bd:51:78:9f:87:80:64:ec:ee:fc:3b:ea:26:8e:d7:b5:d9:
         62:07:51:9b:22:f7:6d:70:4b:23:f8:63:2f:15:25:67:66:d5:
         8f:29:5d:9c:aa:57:fc:47:bb:1b:85:8a:c0:77:41:1b:d7:e4:
         1c:8c:02:8c:e9:0e:38:2f:a1:56:8d:7c:84:cf:ce:ad:ff:e8:
         7e:5f:78:44:9d:ca:6a:4f:4b:10:7f:f6:39:45:49:b8:f7:d0:
         bc:8e:85:2e:c6:00:0c:ca:07:2b:96:ea:c7:da:9d:1e:8f:46:
         ab:ca:ec:70:50:ca:c6:40:90:4a:67:4f:e5:4c:a5:bd:d0:c1:
         57:32:d7:a6:da:e5:f2:db:40:d0:ff:b8:1e:ba:3f:21:71:c1:
         22:61:48:f2:aa:ee:5d:c9:74:1b:25:ea:8d:a2:c9:db:4f:d4:
         55:9f:d4:3f:5b:48:4f:4d:6f:4a:69:24:86:d5:10:af:97:bd:
         ac:a1:1a:b4:48:58:51:51:59:55:f0:f9:ef:ca:c5:5b:5d:8f:
         7e:08:d4:e9:c9:3e:0d:ab:77:fb:65:17:19:9a:17:61:d7:74:
         f6:82:bd:a1:7b:d4:13:01:a4:b6:98:1f:74:8b:a7:6f:a6:f3:
         bc:83:d3:25:17:23:26:fc:6d:2d:13:2f:45:f1:73:92:69:db:
         67:63:7c:f4
-----BEGIN CERTIFICATE-----
MIID5zCCAs+gAwIBAgIJAIcrI89keXDuMA0GCSqGSIb3DQEBCwUAMIGRMQswCQYD
VQQGEwJ1azEPMA0GA1UEBwwGT2xkaGFtMRowGAYDVQQKDBFUaGUgSGFybW9ueSBU
cnVzdDEjMCEGA1UEAwwaVGhlIEhhcm1vbnkgVHJ1c3QgUHJveHkgQ0ExMDAuBgkq
hkiG9w0BCQEWIWdhdGV3YXlzQHZpcnR1ZXRlY2hub2xvZ2llcy5jby51azAeFw0x
NzAxMTExMDQyMTVaFw0yMDAzMjYwMDAwMDBaMIGRMQswCQYDVQQGEwJ1azEPMA0G
A1UEBwwGT2xkaGFtMRowGAYDVQQKDBFUaGUgSGFybW9ueSBUcnVzdDEjMCEGA1UE
AwwaVGhlIEhhcm1vbnkgVHJ1c3QgUHJveHkgQ0ExMDAuBgkqhkiG9w0BCQEWIWdh
dGV3YXlzQHZpcnR1ZXRlY2hub2xvZ2llcy5jby51azCCASIwDQYJKoZIhvcNAQEB
BQADggEPADCCAQoCggEBALxq4tlbjtK29mlFjC6zXIEkwSJwIPzapEKzAEHK8Vev
wZTWUx7SOWi/9d+kMnz7n2OCUB8vVJQFJmWIZliHTMN9MKXds5kKglZEChsN8W4g
4cqtZDxxdn0N5JpvJ4qU6QYRPFvuvHe0Yr2StffcmVIFuVyadRp8ZxMpjFy7ZpQA
ecJ5Lu679XTfB9K7Q3bOlholKzKDAnrrK3+R5p++diPW+OobPgrTpmKlIhA803Oj
RgZu7Gk/vWoSvyqJZtPU2lqFjonD8eTR59UqaGAuvPL57lr/IyjEtgINMniAK3QL
8xAYoJgnq7GX3rqBsnlGS461Cjy7W/JgAP1dlNomt7MCAwEAAaNAMD4wHQYDVR0O
BBYEFLwFJhzed58pZEQgNR0prjkg+7wFMAwGA1UdEwQFMAMBAf8wDwYDVR0RBAgw
BocEfwAAATANBgkqhkiG9w0BAQsFAAOCAQEAL71ReJ+HgGTs7vw76iaO17XZYgdR
myL3bXBLI/hjLxUlZ2bVjyldnKpX/Ee7G4WKwHdBG9fkHIwCjOkOOC+hVo18hM/O
rf/ofl94RJ3Kak9LEH/2OUVJuPfQvI6FLsYADMoHK5bqx9qdHo9Gq8rscFDKxkCQ
SmdP5UylvdDBVzLXptrl8ttA0P+4Hro/IXHBImFI8qruXcl0GyXqjaLJ20/UVZ/U
P1tIT01vSmkkhtUQr5e9rKEatEhYUVFZVfD578rFW12PfgjU6ck+Dat3+2UXGZoX
Ydd09oK9oXvUEwGktpgfdIunb6bzvIPTJRcjJvxtLRMvRfFzkmnbZ2N89A==
-----END CERTIFICATE-----
